target datalayout = "e-m:e-p270:32:32-p271:32:32-p272:64:64-i64:64-i128:128-f80:128-n8:16:32:64-S128"
target triple = "x86_64-pc-linux-gnu"

@.str.24 = private unnamed_addr constant [26 x i8] c"../openssl/test/destest.c\00", align 1
@cbc_iv = internal global [8 x i8] c"\FE\DC\BA\98vT2\10", align 1
@cbc_data = internal global <{ [30 x i8], [10 x i8] }> <{ [30 x i8] c"7654321 Now is the time for \001", [10 x i8] zeroinitializer }>, align 16
@.str.55 = private unnamed_addr constant [3 x i8] c"cs\00", align 1
@.str.59 = private unnamed_addr constant [12 x i8] c"0x70d7a63aL\00", align 1
@.str.60 = private unnamed_addr constant [9 x i8] c"lqret[0]\00", align 1
@.str.61 = private unnamed_addr constant [12 x i8] c"0x327eba8dL\00", align 1
@.str.62 = private unnamed_addr constant [9 x i8] c"lqret[1]\00", align 1
@.str.63 = private unnamed_addr constant [12 x i8] c"0x201a49ccL\00", align 1
@.str.64 = private unnamed_addr constant [9 x i8] c"lqret[2]\00", align 1
@.str.65 = private unnamed_addr constant [9 x i8] c"lqret[3]\00", align 1
@.str.66 = private unnamed_addr constant [12 x i8] c"0x501c2c26L\00", align 1

; Function Attrs: nounwind uwtable
define internal i32 @test_des_quad_cksum() #0 {
  %1 = alloca i32, align 4
  %2 = alloca i32, align 4
  %3 = alloca [4 x i32], align 16
  %4 = alloca i32, align 4
  call void @llvm.lifetime.start.p0(i64 4, ptr %2) #6
  call void @llvm.lifetime.start.p0(i64 16, ptr %3) #6
  %5 = getelementptr inbounds [4 x i32], ptr %3, i64 0, i64 0
  %6 = call i64 @strlen(ptr noundef @cbc_data) #7
  %7 = call i32 @DES_quad_cksum(ptr noundef @cbc_data, ptr noundef %5, i64 noundef %6, i32 noundef 2, ptr noundef @cbc_iv)
  store i32 %7, ptr %2, align 4, !tbaa !4
  %8 = load i32, ptr %2, align 4, !tbaa !4
  %9 = call i32 @test_uint_eq(ptr noundef @.str.24, i32 noundef 699, ptr noundef @.str.55, ptr noundef @.str.59, i32 noundef %8, i32 noundef 1893180986)
  %10 = icmp ne i32 %9, 0
  br i1 %10, label %12, label %11

11:                                               ; preds = %0
  store i32 0, ptr %1, align 4
  store i32 1, ptr %4, align 4
  br label %37

12:                                               ; preds = %0
  %13 = getelementptr inbounds [4 x i32], ptr %3, i64 0, i64 0
  %14 = load i32, ptr %13, align 16, !tbaa !4
  %15 = call i32 @test_uint_eq(ptr noundef @.str.24, i32 noundef 701, ptr noundef @.str.60, ptr noundef @.str.61, i32 noundef %14, i32 noundef 847166093)
  %16 = icmp ne i32 %15, 0
  br i1 %16, label %18, label %17

17:                                               ; preds = %12
  store i32 0, ptr %1, align 4
  store i32 1, ptr %4, align 4
  br label %37

18:                                               ; preds = %12
  %19 = getelementptr inbounds [4 x i32], ptr %3, i64 0, i64 1
  %20 = load i32, ptr %19, align 4, !tbaa !4
  %21 = call i32 @test_uint_eq(ptr noundef @.str.24, i32 noundef 703, ptr noundef @.str.62, ptr noundef @.str.63, i32 noundef %20, i32 noundef 538593740)
  %22 = icmp ne i32 %21, 0
  br i1 %22, label %24, label %23

23:                                               ; preds = %18
  store i32 0, ptr %1, align 4
  store i32 1, ptr %4, align 4
  br label %37

24:                                               ; preds = %18
  %25 = getelementptr inbounds [4 x i32], ptr %3, i64 0, i64 2
  %26 = load i32, ptr %25, align 8, !tbaa !4
  %27 = call i32 @test_uint_eq(ptr noundef @.str.24, i32 noundef 705, ptr noundef @.str.64, ptr noundef @.str.59, i32 noundef %26, i32 noundef 1893180986)
  %28 = icmp ne i32 %27, 0
  br i1 %28, label %30, label %29

29:                                               ; preds = %24
  store i32 0, ptr %1, align 4
  store i32 1, ptr %4, align 4
  br label %37

30:                                               ; preds = %24
  %31 = getelementptr inbounds [4 x i32], ptr %3, i64 0, i64 3
  %32 = load i32, ptr %31, align 4, !tbaa !4
  %33 = call i32 @test_uint_eq(ptr noundef @.str.24, i32 noundef 707, ptr noundef @.str.65, ptr noundef @.str.66, i32 noundef %32, i32 noundef 1344023590)
  %34 = icmp ne i32 %33, 0
  br i1 %34, label %36, label %35

35:                                               ; preds = %30
  store i32 0, ptr %1, align 4
  store i32 1, ptr %4, align 4
  br label %37

36:                                               ; preds = %30
  store i32 1, ptr %1, align 4
  store i32 1, ptr %4, align 4
  br label %37

37:                                               ; preds = %36, %35, %29, %23, %17, %11
  call void @llvm.lifetime.end.p0(i64 16, ptr %3) #6
  call void @llvm.lifetime.end.p0(i64 4, ptr %2) #6
  %38 = load i32, ptr %1, align 4
  ret i32 %38
}