; Function Attrs: nounwind uwtable
define internal range(i32 0, 2) i32 @test_des_quad_cksum() #0 {
  %1 = alloca [4 x i32], align 16
  call void @llvm.lifetime.start.p0(i64 16, ptr nonnull %1) #6
  %2 = tail call i64 @strlen(ptr noundef nonnull dereferenceable(1) @cbc_data) #7
  %3 = call i32 @DES_quad_cksum(ptr noundef nonnull @cbc_data, ptr noundef nonnull %1, i64 noundef %2, i32 noundef 2, ptr noundef nonnull @cbc_iv) #6
  %4 = call i32 @test_uint_eq(ptr noundef nonnull @.str.24, i32 noundef 699, ptr noundef nonnull @.str.55, ptr noundef nonnull @.str.59, i32 noundef %3, i32 noundef 1893180986) #6
  %.not = icmp eq i32 %4, 0
  br i1 %.not, label %20, label %5

5:                                                ; preds = %0
  %6 = load i32, ptr %1, align 16, !tbaa !9
  %7 = call i32 @test_uint_eq(ptr noundef nonnull @.str.24, i32 noundef 701, ptr noundef nonnull @.str.60, ptr noundef nonnull @.str.61, i32 noundef %6, i32 noundef 847166093) #6
  %.not2 = icmp eq i32 %7, 0
  br i1 %.not2, label %20, label %8

8:                                                ; preds = %5
  %9 = getelementptr inbounds nuw i8, ptr %1, i64 4
  %10 = load i32, ptr %9, align 4, !tbaa !9
  %11 = call i32 @test_uint_eq(ptr noundef nonnull @.str.24, i32 noundef 703, ptr noundef nonnull @.str.62, ptr noundef nonnull @.str.63, i32 noundef %10, i32 noundef 538593740) #6
  %.not3 = icmp eq i32 %11, 0
  br i1 %.not3, label %20, label %12

12:                                               ; preds = %8
  %13 = getelementptr inbounds nuw i8, ptr %1, i64 8
  %14 = load i32, ptr %13, align 8, !tbaa !9
  %15 = call i32 @test_uint_eq(ptr noundef nonnull @.str.24, i32 noundef 705, ptr noundef nonnull @.str.64, ptr noundef nonnull @.str.59, i32 noundef %14, i32 noundef 1893180986) #6
  %.not4 = icmp eq i32 %15, 0
  br i1 %.not4, label %20, label %16

16:                                               ; preds = %12
  %17 = getelementptr inbounds nuw i8, ptr %1, i64 12
  %18 = load i32, ptr %17, align 4, !tbaa !9
  %19 = call i32 @test_uint_eq(ptr noundef nonnull @.str.24, i32 noundef 707, ptr noundef nonnull @.str.65, ptr noundef nonnull @.str.66, i32 noundef %18, i32 noundef 1344023590) #6
  %.not5 = icmp ne i32 %19, 0
  %. = zext i1 %.not5 to i32
  br label %20

20:                                               ; preds = %16, %12, %8, %5, %0
  %.0 = phi i32 [ 0, %0 ], [ 0, %5 ], [ 0, %8 ], [ 0, %12 ], [ %., %16 ]
  call void @llvm.lifetime.end.p0(i64 16, ptr nonnull %1) #6
  ret i32 %.0
}